; Function Attrs: mustprogress uwtable
define internal fastcc void @"_ZSt22__stable_sort_adaptiveIN9__gnu_cxx17__normal_iteratorIPiSt6vectorIiSaIiEEEES2_lNS0_5__ops15_Iter_comp_iterIZN8LightGBM19FastFeatureBundlingERKS3_ISt10unique_ptrINS9_9BinMapperESt14default_deleteISB_EESaISE_EEPS2_PPdPKiiiRKS5_ibbPS3_IaSaIaEEE3$_0EEEvT_SV_T0_T1_T2_"(ptr %0, ptr %1, ptr noundef %2, i64 noundef %3, ptr %4) unnamed_addr #3 {
  %6 = ptrtoint ptr %1 to i64
  %7 = ptrtoint ptr %0 to i64
  %8 = sub i64 %6, %7
  %9 = ashr exact i64 %8, 2
  %10 = add nsw i64 %9, 1
  %11 = sdiv i64 %10, 2
  %12 = getelementptr inbounds i32, ptr %0, i64 %11
  %13 = icmp sgt i64 %11, %3
  br i1 %13, label %14, label %15

14:                                               ; preds = %5
  tail call fastcc void @"_ZSt22__stable_sort_adaptiveIN9__gnu_cxx17__normal_iteratorIPiSt6vectorIiSaIiEEEES2_lNS0_5__ops15_Iter_comp_iterIZN8LightGBM19FastFeatureBundlingERKS3_ISt10unique_ptrINS9_9BinMapperESt14default_deleteISB_EESaISE_EEPS2_PPdPKiiiRKS5_ibbPS3_IaSaIaEEE3$_0EEEvT_SV_T0_T1_T2_"(ptr %0, ptr %12, ptr noundef %2, i64 noundef %3, ptr %4)
  tail call fastcc void @"_ZSt22__stable_sort_adaptiveIN9__gnu_cxx17__normal_iteratorIPiSt6vectorIiSaIiEEEES2_lNS0_5__ops15_Iter_comp_iterIZN8LightGBM19FastFeatureBundlingERKS3_ISt10unique_ptrINS9_9BinMapperESt14default_deleteISB_EESaISE_EEPS2_PPdPKiiiRKS5_ibbPS3_IaSaIaEEE3$_0EEEvT_SV_T0_T1_T2_"(ptr %12, ptr %1, ptr noundef %2, i64 noundef %3, ptr %4)
  br label %16

15:                                               ; preds = %5
  tail call fastcc void @"_ZSt24__merge_sort_with_bufferIN9__gnu_cxx17__normal_iteratorIPiSt6vectorIiSaIiEEEES2_NS0_5__ops15_Iter_comp_iterIZN8LightGBM19FastFeatureBundlingERKS3_ISt10unique_ptrINS9_9BinMapperESt14default_deleteISB_EESaISE_EEPS2_PPdPKiiiRKS5_ibbPS3_IaSaIaEEE3$_0EEEvT_SV_T0_T1_"(ptr %0, ptr %12, ptr noundef %2, ptr %4)
  tail call fastcc void @"_ZSt24__merge_sort_with_bufferIN9__gnu_cxx17__normal_iteratorIPiSt6vectorIiSaIiEEEES2_NS0_5__ops15_Iter_comp_iterIZN8LightGBM19FastFeatureBundlingERKS3_ISt10unique_ptrINS9_9BinMapperESt14default_deleteISB_EESaISE_EEPS2_PPdPKiiiRKS5_ibbPS3_IaSaIaEEE3$_0EEEvT_SV_T0_T1_"(ptr %12, ptr %1, ptr noundef %2, ptr %4)
  br label %16

16:                                               ; preds = %15, %14
  %17 = ptrtoint ptr %12 to i64
  %18 = sub i64 %6, %17
  %19 = ashr exact i64 %18, 2
  %20 = ptrtoint ptr %4 to i64
  tail call fastcc void @"_ZSt16__merge_adaptiveIN9__gnu_cxx17__normal_iteratorIPiSt6vectorIiSaIiEEEElS2_NS0_5__ops15_Iter_comp_iterIZN8LightGBM19FastFeatureBundlingERKS3_ISt10unique_ptrINS9_9BinMapperESt14default_deleteISB_EESaISE_EEPS2_PPdPKiiiRKS5_ibbPS3_IaSaIaEEE3$_0EEEvT_SV_SV_T0_SW_T1_SW_T2_"(ptr %0, ptr %12, ptr %1, i64 noundef %11, i64 noundef %19, ptr noundef %2, i64 noundef %3, i64 %20)
  ret void
}